
clap_switch1:     file format elf32-littleriscv


Disassembly of section .text:

00000000 <delay>:
   0:	fd010113          	addi	sp,sp,-48
   4:	02112623          	sw	ra,44(sp)
   8:	02812423          	sw	s0,40(sp)
   c:	03010413          	addi	s0,sp,48
  10:	fca42e23          	sw	a0,-36(s0)
  14:	fdc42703          	lw	a4,-36(s0)
  18:	3e800793          	li	a5,1000
  1c:	02f707b3          	mul	a5,a4,a5
  20:	fef42623          	sw	a5,-20(s0)
  24:	00000097          	auipc	ra,0x0
  28:	000080e7          	jalr	ra # 24 <delay+0x24>
  2c:	fea42423          	sw	a0,-24(s0)
  30:	00000013          	nop

00000034 <.L2>:
  34:	00000097          	auipc	ra,0x0
  38:	000080e7          	jalr	ra # 34 <.L2>
  3c:	00050693          	mv	a3,a0
  40:	fec42703          	lw	a4,-20(s0)
  44:	fe842783          	lw	a5,-24(s0)
  48:	00f707b3          	add	a5,a4,a5
  4c:	fef6e4e3          	bltu	a3,a5,34 <.L2>
  50:	00000013          	nop
  54:	00078513          	mv	a0,a5
  58:	02c12083          	lw	ra,44(sp)
  5c:	02812403          	lw	s0,40(sp)
  60:	03010113          	addi	sp,sp,48
  64:	00008067          	ret

00000068 <read>:
  68:	fe010113          	addi	sp,sp,-32
  6c:	00112e23          	sw	ra,28(sp)
  70:	00812c23          	sw	s0,24(sp)
  74:	02010413          	addi	s0,sp,32
  78:	00100793          	li	a5,1
  7c:	fef42623          	sw	a5,-20(s0)
  80:	fec42703          	lw	a4,-20(s0)
  84:	00100793          	li	a5,1
  88:	14f71263          	bne	a4,a5,1cc <.L4>
  8c:	000007b7          	lui	a5,0x0
  90:	0007a783          	lw	a5,0(a5) # 0 <delay>
  94:	02079463          	bnez	a5,bc <.L5>
  98:	000007b7          	lui	a5,0x0
  9c:	00100713          	li	a4,1
  a0:	00e7a023          	sw	a4,0(a5) # 0 <delay>
  a4:	00000097          	auipc	ra,0x0
  a8:	000080e7          	jalr	ra # a4 <read+0x3c>
  ac:	00050713          	mv	a4,a0
  b0:	000007b7          	lui	a5,0x0
  b4:	00e7a023          	sw	a4,0(a5) # 0 <delay>
  b8:	1080006f          	j	1c0 <.L6>

000000bc <.L5>:
  bc:	000007b7          	lui	a5,0x0
  c0:	0007a703          	lw	a4,0(a5) # 0 <delay>
  c4:	00100793          	li	a5,1
  c8:	04f71c63          	bne	a4,a5,120 <.L7>
  cc:	000007b7          	lui	a5,0x0
  d0:	0007a783          	lw	a5,0(a5) # 0 <delay>
  d4:	04079663          	bnez	a5,120 <.L7>
  d8:	00000097          	auipc	ra,0x0
  dc:	000080e7          	jalr	ra # d8 <.L5+0x1c>
  e0:	00050713          	mv	a4,a0
  e4:	000007b7          	lui	a5,0x0
  e8:	0007a783          	lw	a5,0(a5) # 0 <delay>
  ec:	40f70733          	sub	a4,a4,a5
  f0:	0007a7b7          	lui	a5,0x7a
  f4:	11f78793          	addi	a5,a5,287 # 7a11f <.L16+0x79eab>
  f8:	00e7ee63          	bltu	a5,a4,114 <.L8>
  fc:	000007b7          	lui	a5,0x0
 100:	00100713          	li	a4,1
 104:	00e7a023          	sw	a4,0(a5) # 0 <delay>
 108:	00100793          	li	a5,1
 10c:	fef42423          	sw	a5,-24(s0)
 110:	0b00006f          	j	1c0 <.L6>

00000114 <.L8>:
 114:	000007b7          	lui	a5,0x0
 118:	0007a023          	sw	zero,0(a5) # 0 <delay>
 11c:	0a40006f          	j	1c0 <.L6>

00000120 <.L7>:
 120:	000007b7          	lui	a5,0x0
 124:	0007a703          	lw	a4,0(a5) # 0 <delay>
 128:	00100793          	li	a5,1
 12c:	08f71a63          	bne	a4,a5,1c0 <.L6>
 130:	000007b7          	lui	a5,0x0
 134:	0007a703          	lw	a4,0(a5) # 0 <delay>
 138:	00100793          	li	a5,1
 13c:	08f71263          	bne	a4,a5,1c0 <.L6>
 140:	000007b7          	lui	a5,0x0
 144:	0007a783          	lw	a5,0(a5) # 0 <delay>
 148:	02079463          	bnez	a5,170 <.L10>
 14c:	000007b7          	lui	a5,0x0
 150:	00100713          	li	a4,1
 154:	00e7a023          	sw	a4,0(a5) # 0 <delay>
 158:	00000097          	auipc	ra,0x0
 15c:	000080e7          	jalr	ra # 158 <.L7+0x38>
 160:	00050713          	mv	a4,a0
 164:	000007b7          	lui	a5,0x0
 168:	00e7a023          	sw	a4,0(a5) # 0 <delay>
 16c:	0540006f          	j	1c0 <.L6>

00000170 <.L10>:
 170:	000007b7          	lui	a5,0x0
 174:	0007a703          	lw	a4,0(a5) # 0 <delay>
 178:	00100793          	li	a5,1
 17c:	04f71263          	bne	a4,a5,1c0 <.L6>
 180:	00000097          	auipc	ra,0x0
 184:	000080e7          	jalr	ra # 180 <.L10+0x10>
 188:	00050713          	mv	a4,a0
 18c:	000007b7          	lui	a5,0x0
 190:	0007a783          	lw	a5,0(a5) # 0 <delay>
 194:	40f70733          	sub	a4,a4,a5
 198:	0007a7b7          	lui	a5,0x7a
 19c:	11f78793          	addi	a5,a5,287 # 7a11f <.L16+0x79eab>
 1a0:	00e7ec63          	bltu	a5,a4,1b8 <.L11>
 1a4:	000007b7          	lui	a5,0x0
 1a8:	0007a023          	sw	zero,0(a5) # 0 <delay>
 1ac:	000007b7          	lui	a5,0x0
 1b0:	0007a023          	sw	zero,0(a5) # 0 <delay>
 1b4:	fe042423          	sw	zero,-24(s0)

000001b8 <.L11>:
 1b8:	000007b7          	lui	a5,0x0
 1bc:	0007a023          	sw	zero,0(a5) # 0 <delay>

000001c0 <.L6>:
 1c0:	0c800513          	li	a0,200
 1c4:	00000097          	auipc	ra,0x0
 1c8:	000080e7          	jalr	ra # 1c4 <.L6+0x4>

000001cc <.L4>:
 1cc:	000007b7          	lui	a5,0x0
 1d0:	0007a703          	lw	a4,0(a5) # 0 <delay>
 1d4:	00100793          	li	a5,1
 1d8:	02f71e63          	bne	a4,a5,214 <.L12>
 1dc:	000007b7          	lui	a5,0x0
 1e0:	0007a783          	lw	a5,0(a5) # 0 <delay>
 1e4:	02079863          	bnez	a5,214 <.L12>
 1e8:	00000097          	auipc	ra,0x0
 1ec:	000080e7          	jalr	ra # 1e8 <.L4+0x1c>
 1f0:	00050713          	mv	a4,a0
 1f4:	000007b7          	lui	a5,0x0
 1f8:	0007a783          	lw	a5,0(a5) # 0 <delay>
 1fc:	40f70733          	sub	a4,a4,a5
 200:	0007a7b7          	lui	a5,0x7a
 204:	12078793          	addi	a5,a5,288 # 7a120 <.L16+0x79eac>
 208:	00e7f663          	bgeu	a5,a4,214 <.L12>
 20c:	000007b7          	lui	a5,0x0
 210:	0007a023          	sw	zero,0(a5) # 0 <delay>

00000214 <.L12>:
 214:	000007b7          	lui	a5,0x0
 218:	0007a703          	lw	a4,0(a5) # 0 <delay>
 21c:	00100793          	li	a5,1
 220:	02f71863          	bne	a4,a5,250 <.L14>
 224:	00000097          	auipc	ra,0x0
 228:	000080e7          	jalr	ra # 224 <.L12+0x10>
 22c:	00050713          	mv	a4,a0
 230:	000007b7          	lui	a5,0x0
 234:	0007a783          	lw	a5,0(a5) # 0 <delay>
 238:	40f70733          	sub	a4,a4,a5
 23c:	0007a7b7          	lui	a5,0x7a
 240:	12078793          	addi	a5,a5,288 # 7a120 <.L16+0x79eac>
 244:	00e7f663          	bgeu	a5,a4,250 <.L14>
 248:	000007b7          	lui	a5,0x0
 24c:	0007a023          	sw	zero,0(a5) # 0 <delay>

00000250 <.L14>:
 250:	00000013          	nop
 254:	01c12083          	lw	ra,28(sp)
 258:	01812403          	lw	s0,24(sp)
 25c:	02010113          	addi	sp,sp,32
 260:	00008067          	ret

00000264 <main>:
 264:	ff010113          	addi	sp,sp,-16
 268:	00112623          	sw	ra,12(sp)
 26c:	00812423          	sw	s0,8(sp)
 270:	01010413          	addi	s0,sp,16

00000274 <.L16>:
 274:	00000097          	auipc	ra,0x0
 278:	000080e7          	jalr	ra # 274 <.L16>
 27c:	ff9ff06f          	j	274 <.L16>
